target datalayout = "e-m:e-p270:32:32-p271:32:32-p272:64:64-i64:64-i128:128-f80:128-n8:16:32:64-S128"
target triple = "x86_64-pc-linux-gnu"

%struct.URLContext = type { ptr, ptr, ptr, ptr, i32, i32, i32, i32, %struct.AVIOInterruptCB, i64, ptr, ptr, i32 }
%struct.AVIOInterruptCB = type { ptr, ptr }
%struct.HTTPContext = type { ptr, ptr, [8192 x i8], ptr, ptr, i32, i32, i64, i32, i64, i64, i64, ptr, ptr, %struct.HTTPAuthState, %struct.HTTPAuthState, ptr, ptr, ptr, ptr, ptr, ptr, ptr, i32, i32, i32, i32, i32, i32, ptr, i32, i32, i32, ptr, ptr, i32, i64, i64, ptr, ptr, ptr, i32, %struct.z_stream_s, ptr, ptr, i32, ptr, i32, i32, i32, i32, i32, ptr, i32, ptr, i32, i32, i32, i32, i32, i64, ptr, ptr, i64, i32, i32, i32, i32 }
%struct.HTTPAuthState = type { i32, [200 x i8], %struct.DigestParams, i32 }
%struct.DigestParams = type { [300 x i8], [10 x i8], [30 x i8], [300 x i8], [10 x i8], i32 }
%struct.z_stream_s = type { ptr, i32, i64, ptr, i32, i64, ptr, ptr, ptr, ptr, ptr, i32, i64, i64 }

; Function Attrs: nounwind uwtable
define internal i64 @http_seek_internal(ptr noundef %0, i64 noundef %1, i32 noundef %2, i32 noundef %3) #0 {
  %5 = alloca i64, align 8
  %6 = alloca ptr, align 8
  %7 = alloca i64, align 8
  %8 = alloca i32, align 4
  %9 = alloca i32, align 4
  %10 = alloca ptr, align 8
  %11 = alloca ptr, align 8
  %12 = alloca i64, align 8
  %13 = alloca [8192 x i8], align 16
  %14 = alloca i32, align 4
  %15 = alloca i32, align 4
  %16 = alloca ptr, align 8
  %17 = alloca i32, align 4
  %18 = alloca i64, align 8
  %19 = alloca ptr, align 8
  store ptr %0, ptr %6, align 8, !tbaa !4
  store i64 %1, ptr %7, align 8, !tbaa !47
  store i32 %2, ptr %8, align 4, !tbaa !34
  store i32 %3, ptr %9, align 4, !tbaa !34
  call void @llvm.lifetime.start.p0(i64 8, ptr %10) #11
  %20 = load ptr, ptr %6, align 8, !tbaa !4
  %21 = getelementptr inbounds nuw %struct.URLContext, ptr %20, i32 0, i32 2
  %22 = load ptr, ptr %21, align 8, !tbaa !9
  store ptr %22, ptr %10, align 8, !tbaa !21
  call void @llvm.lifetime.start.p0(i64 8, ptr %11) #11
  %23 = load ptr, ptr %10, align 8, !tbaa !21
  %24 = getelementptr inbounds nuw %struct.HTTPContext, ptr %23, i32 0, i32 1
  %25 = load ptr, ptr %24, align 8, !tbaa !44
  store ptr %25, ptr %11, align 8, !tbaa !4
  call void @llvm.lifetime.start.p0(i64 8, ptr %12) #11
  %26 = load ptr, ptr %10, align 8, !tbaa !21
  %27 = getelementptr inbounds nuw %struct.HTTPContext, ptr %26, i32 0, i32 9
  %28 = load i64, ptr %27, align 8, !tbaa !39
  store i64 %28, ptr %12, align 8, !tbaa !47
  call void @llvm.lifetime.start.p0(i64 8192, ptr %13) #11
  call void @llvm.lifetime.start.p0(i64 4, ptr %14) #11
  call void @llvm.lifetime.start.p0(i64 4, ptr %15) #11
  call void @llvm.lifetime.start.p0(i64 8, ptr %16) #11
  store ptr null, ptr %16, align 8, !tbaa !23
  %29 = load i32, ptr %8, align 4, !tbaa !34
  %30 = icmp eq i32 %29, 65536
  br i1 %30, label %31, label %35

31:                                               ; preds = %4
  %32 = load ptr, ptr %10, align 8, !tbaa !21
  %33 = getelementptr inbounds nuw %struct.HTTPContext, ptr %32, i32 0, i32 11
  %34 = load i64, ptr %33, align 8, !tbaa !62
  store i64 %34, ptr %5, align 8
  store i32 1, ptr %17, align 4
  br label %229

35:                                               ; preds = %4
  %36 = load i32, ptr %9, align 4, !tbaa !34
  %37 = icmp ne i32 %36, 0
  br i1 %37, label %57, label %38

38:                                               ; preds = %35
  %39 = load i32, ptr %8, align 4, !tbaa !34
  %40 = icmp eq i32 %39, 1
  br i1 %40, label %41, label %44

41:                                               ; preds = %38
  %42 = load i64, ptr %7, align 8, !tbaa !47
  %43 = icmp eq i64 %42, 0
  br i1 %43, label %53, label %44

44:                                               ; preds = %41, %38
  %45 = load i32, ptr %8, align 4, !tbaa !34
  %46 = icmp eq i32 %45, 0
  br i1 %46, label %47, label %57

47:                                               ; preds = %44
  %48 = load i64, ptr %7, align 8, !tbaa !47
  %49 = load ptr, ptr %10, align 8, !tbaa !21
  %50 = getelementptr inbounds nuw %struct.HTTPContext, ptr %49, i32 0, i32 9
  %51 = load i64, ptr %50, align 8, !tbaa !39
  %52 = icmp eq i64 %48, %51
  br i1 %52, label %53, label %57

53:                                               ; preds = %47, %41
  %54 = load ptr, ptr %10, align 8, !tbaa !21
  %55 = getelementptr inbounds nuw %struct.HTTPContext, ptr %54, i32 0, i32 9
  %56 = load i64, ptr %55, align 8, !tbaa !39
  store i64 %56, ptr %5, align 8
  store i32 1, ptr %17, align 4
  br label %229

57:                                               ; preds = %47, %44, %35
  %58 = load ptr, ptr %10, align 8, !tbaa !21
  %59 = getelementptr inbounds nuw %struct.HTTPContext, ptr %58, i32 0, i32 11
  %60 = load i64, ptr %59, align 8, !tbaa !62
  %61 = icmp eq i64 %60, -1
  br i1 %61, label %62, label %66

62:                                               ; preds = %57
  %63 = load i32, ptr %8, align 4, !tbaa !34
  %64 = icmp eq i32 %63, 2
  br i1 %64, label %65, label %66

65:                                               ; preds = %62
  store i64 -38, ptr %5, align 8
  store i32 1, ptr %17, align 4
  br label %229

66:                                               ; preds = %62, %57
  br label %67

67:                                               ; preds = %66
  br label %68

68:                                               ; preds = %67
  %69 = load i32, ptr %8, align 4, !tbaa !34
  %70 = icmp eq i32 %69, 1
  br i1 %70, label %71, label %77

71:                                               ; preds = %68
  %72 = load ptr, ptr %10, align 8, !tbaa !21
  %73 = getelementptr inbounds nuw %struct.HTTPContext, ptr %72, i32 0, i32 9
  %74 = load i64, ptr %73, align 8, !tbaa !39
  %75 = load i64, ptr %7, align 8, !tbaa !47
  %76 = add i64 %75, %74
  store i64 %76, ptr %7, align 8, !tbaa !47
  br label %92

77:                                               ; preds = %68
  %78 = load i32, ptr %8, align 4, !tbaa !34
  %79 = icmp eq i32 %78, 2
  br i1 %79, label %80, label %86

80:                                               ; preds = %77
  %81 = load ptr, ptr %10, align 8, !tbaa !21
  %82 = getelementptr inbounds nuw %struct.HTTPContext, ptr %81, i32 0, i32 11
  %83 = load i64, ptr %82, align 8, !tbaa !62
  %84 = load i64, ptr %7, align 8, !tbaa !47
  %85 = add i64 %84, %83
  store i64 %85, ptr %7, align 8, !tbaa !47
  br label %91

86:                                               ; preds = %77
  %87 = load i32, ptr %8, align 4, !tbaa !34
  %88 = icmp ne i32 %87, 0
  br i1 %88, label %89, label %90

89:                                               ; preds = %86
  store i64 -22, ptr %5, align 8
  store i32 1, ptr %17, align 4
  br label %229

90:                                               ; preds = %86
  br label %91

91:                                               ; preds = %90, %80
  br label %92

92:                                               ; preds = %91, %71
  %93 = load i64, ptr %7, align 8, !tbaa !47
  %94 = icmp slt i64 %93, 0
  br i1 %94, label %95, label %96

95:                                               ; preds = %92
  store i64 -22, ptr %5, align 8
  store i32 1, ptr %17, align 4
  br label %229

96:                                               ; preds = %92
  %97 = load i64, ptr %7, align 8, !tbaa !47
  %98 = load ptr, ptr %10, align 8, !tbaa !21
  %99 = getelementptr inbounds nuw %struct.HTTPContext, ptr %98, i32 0, i32 9
  store i64 %97, ptr %99, align 8, !tbaa !39
  %100 = load ptr, ptr %10, align 8, !tbaa !21
  %101 = getelementptr inbounds nuw %struct.HTTPContext, ptr %100, i32 0, i32 9
  %102 = load i64, ptr %101, align 8, !tbaa !39
  %103 = icmp ne i64 %102, 0
  br i1 %103, label %104, label %110

104:                                              ; preds = %96
  %105 = load ptr, ptr %6, align 8, !tbaa !4
  %106 = getelementptr inbounds nuw %struct.URLContext, ptr %105, i32 0, i32 6
  %107 = load i32, ptr %106, align 8, !tbaa !61
  %108 = icmp ne i32 %107, 0
  br i1 %108, label %109, label %110

109:                                              ; preds = %104
  store i64 -38, ptr %5, align 8
  store i32 1, ptr %17, align 4
  br label %229

110:                                              ; preds = %104, %96
  %111 = load ptr, ptr %10, align 8, !tbaa !21
  %112 = getelementptr inbounds nuw %struct.HTTPContext, ptr %111, i32 0, i32 10
  %113 = load i64, ptr %112, align 8, !tbaa !83
  %114 = icmp ne i64 %113, 0
  br i1 %114, label %120, label %115

115:                                              ; preds = %110
  %116 = load ptr, ptr %10, align 8, !tbaa !21
  %117 = getelementptr inbounds nuw %struct.HTTPContext, ptr %116, i32 0, i32 11
  %118 = load i64, ptr %117, align 8, !tbaa !62
  %119 = icmp ne i64 %118, -1
  br i1 %119, label %120, label %148

120:                                              ; preds = %115, %110
  call void @llvm.lifetime.start.p0(i64 8, ptr %18) #11
  %121 = load ptr, ptr %10, align 8, !tbaa !21
  %122 = getelementptr inbounds nuw %struct.HTTPContext, ptr %121, i32 0, i32 10
  %123 = load i64, ptr %122, align 8, !tbaa !83
  %124 = icmp ne i64 %123, 0
  br i1 %124, label %125, label %129

125:                                              ; preds = %120
  %126 = load ptr, ptr %10, align 8, !tbaa !21
  %127 = getelementptr inbounds nuw %struct.HTTPContext, ptr %126, i32 0, i32 10
  %128 = load i64, ptr %127, align 8, !tbaa !83
  br label %133

129:                                              ; preds = %120
  %130 = load ptr, ptr %10, align 8, !tbaa !21
  %131 = getelementptr inbounds nuw %struct.HTTPContext, ptr %130, i32 0, i32 11
  %132 = load i64, ptr %131, align 8, !tbaa !62
  br label %133

133:                                              ; preds = %129, %125
  %134 = phi i64 [ %128, %125 ], [ %132, %129 ]
  store i64 %134, ptr %18, align 8, !tbaa !47
  %135 = load ptr, ptr %10, align 8, !tbaa !21
  %136 = getelementptr inbounds nuw %struct.HTTPContext, ptr %135, i32 0, i32 9
  %137 = load i64, ptr %136, align 8, !tbaa !39
  %138 = load i64, ptr %18, align 8, !tbaa !47
  %139 = icmp uge i64 %137, %138
  br i1 %139, label %140, label %144

140:                                              ; preds = %133
  %141 = load ptr, ptr %10, align 8, !tbaa !21
  %142 = getelementptr inbounds nuw %struct.HTTPContext, ptr %141, i32 0, i32 9
  %143 = load i64, ptr %142, align 8, !tbaa !39
  store i64 %143, ptr %5, align 8
  store i32 1, ptr %17, align 4
  br label %145

144:                                              ; preds = %133
  store i32 0, ptr %17, align 4
  br label %145

145:                                              ; preds = %144, %140
  call void @llvm.lifetime.end.p0(i64 8, ptr %18) #11
  %146 = load i32, ptr %17, align 4
  switch i32 %146, label %229 [
    i32 0, label %147
  ]

147:                                              ; preds = %145
  br label %148

148:                                              ; preds = %147, %115
  %149 = load ptr, ptr %10, align 8, !tbaa !21
  %150 = getelementptr inbounds nuw %struct.HTTPContext, ptr %149, i32 0, i32 12
  %151 = load ptr, ptr %150, align 8, !tbaa !41
  %152 = load ptr, ptr %10, align 8, !tbaa !21
  %153 = getelementptr inbounds nuw %struct.HTTPContext, ptr %152, i32 0, i32 13
  %154 = load ptr, ptr %153, align 8, !tbaa !28
  %155 = call i32 @strcmp(ptr noundef %151, ptr noundef %154) #12
  %156 = icmp ne i32 %155, 0
  br i1 %156, label %157, label %175

157:                                              ; preds = %148
  call void @llvm.lifetime.start.p0(i64 8, ptr %19) #11
  %158 = load ptr, ptr %10, align 8, !tbaa !21
  %159 = getelementptr inbounds nuw %struct.HTTPContext, ptr %158, i32 0, i32 12
  %160 = load ptr, ptr %159, align 8, !tbaa !41
  %161 = call noalias ptr @av_strdup(ptr noundef %160)
  store ptr %161, ptr %19, align 8, !tbaa !17
  %162 = load ptr, ptr %19, align 8, !tbaa !17
  %163 = icmp ne ptr %162, null
  br i1 %163, label %165, label %164

164:                                              ; preds = %157
  store i64 -12, ptr %5, align 8
  store i32 1, ptr %17, align 4
  br label %172

165:                                              ; preds = %157
  %166 = load ptr, ptr %10, align 8, !tbaa !21
  %167 = getelementptr inbounds nuw %struct.HTTPContext, ptr %166, i32 0, i32 13
  %168 = load ptr, ptr %167, align 8, !tbaa !28
  call void @av_free(ptr noundef %168)
  %169 = load ptr, ptr %19, align 8, !tbaa !17
  %170 = load ptr, ptr %10, align 8, !tbaa !21
  %171 = getelementptr inbounds nuw %struct.HTTPContext, ptr %170, i32 0, i32 13
  store ptr %169, ptr %171, align 8, !tbaa !28
  store i32 0, ptr %17, align 4
  br label %172

172:                                              ; preds = %165, %164
  call void @llvm.lifetime.end.p0(i64 8, ptr %19) #11
  %173 = load i32, ptr %17, align 4
  switch i32 %173, label %229 [
    i32 0, label %174
  ]

174:                                              ; preds = %172
  br label %175

175:                                              ; preds = %174, %148
  %176 = load ptr, ptr %10, align 8, !tbaa !21
  %177 = getelementptr inbounds nuw %struct.HTTPContext, ptr %176, i32 0, i32 4
  %178 = load ptr, ptr %177, align 8, !tbaa !77
  %179 = load ptr, ptr %10, align 8, !tbaa !21
  %180 = getelementptr inbounds nuw %struct.HTTPContext, ptr %179, i32 0, i32 3
  %181 = load ptr, ptr %180, align 8, !tbaa !76
  %182 = ptrtoint ptr %178 to i64
  %183 = ptrtoint ptr %181 to i64
  %184 = sub i64 %182, %183
  %185 = trunc i64 %184 to i32
  store i32 %185, ptr %14, align 4, !tbaa !34
  %186 = getelementptr inbounds [8192 x i8], ptr %13, i64 0, i64 0
  %187 = load ptr, ptr %10, align 8, !tbaa !21
  %188 = getelementptr inbounds nuw %struct.HTTPContext, ptr %187, i32 0, i32 3
  %189 = load ptr, ptr %188, align 8, !tbaa !76
  %190 = load i32, ptr %14, align 4, !tbaa !34
  %191 = sext i32 %190 to i64
  call void @llvm.memcpy.p0.p0.i64(ptr align 16 %186, ptr align 1 %189, i64 %191, i1 false)
  %192 = load ptr, ptr %10, align 8, !tbaa !21
  %193 = getelementptr inbounds nuw %struct.HTTPContext, ptr %192, i32 0, i32 1
  store ptr null, ptr %193, align 8, !tbaa !44
  %194 = load ptr, ptr %6, align 8, !tbaa !4
  %195 = call i32 @http_open_cnx(ptr noundef %194, ptr noundef %16)
  store i32 %195, ptr %15, align 4, !tbaa !34
  %196 = icmp slt i32 %195, 0
  br i1 %196, label %197, label %225

197:                                              ; preds = %175
  call void @av_dict_free(ptr noundef %16)
  %198 = load ptr, ptr %10, align 8, !tbaa !21
  %199 = getelementptr inbounds nuw %struct.HTTPContext, ptr %198, i32 0, i32 2
  %200 = getelementptr inbounds [8192 x i8], ptr %199, i64 0, i64 0
  %201 = getelementptr inbounds [8192 x i8], ptr %13, i64 0, i64 0
  %202 = load i32, ptr %14, align 4, !tbaa !34
  %203 = sext i32 %202 to i64
  call void @llvm.memcpy.p0.p0.i64(ptr align 8 %200, ptr align 16 %201, i64 %203, i1 false)
  %204 = load ptr, ptr %10, align 8, !tbaa !21
  %205 = getelementptr inbounds nuw %struct.HTTPContext, ptr %204, i32 0, i32 2
  %206 = getelementptr inbounds [8192 x i8], ptr %205, i64 0, i64 0
  %207 = load ptr, ptr %10, align 8, !tbaa !21
  %208 = getelementptr inbounds nuw %struct.HTTPContext, ptr %207, i32 0, i32 3
  store ptr %206, ptr %208, align 8, !tbaa !76
  %209 = load ptr, ptr %10, align 8, !tbaa !21
  %210 = getelementptr inbounds nuw %struct.HTTPContext, ptr %209, i32 0, i32 2
  %211 = getelementptr inbounds [8192 x i8], ptr %210, i64 0, i64 0
  %212 = load i32, ptr %14, align 4, !tbaa !34
  %213 = sext i32 %212 to i64
  %214 = getelementptr inbounds i8, ptr %211, i64 %213
  %215 = load ptr, ptr %10, align 8, !tbaa !21
  %216 = getelementptr inbounds nuw %struct.HTTPContext, ptr %215, i32 0, i32 4
  store ptr %214, ptr %216, align 8, !tbaa !77
  %217 = load ptr, ptr %11, align 8, !tbaa !4
  %218 = load ptr, ptr %10, align 8, !tbaa !21
  %219 = getelementptr inbounds nuw %struct.HTTPContext, ptr %218, i32 0, i32 1
  store ptr %217, ptr %219, align 8, !tbaa !44
  %220 = load i64, ptr %12, align 8, !tbaa !47
  %221 = load ptr, ptr %10, align 8, !tbaa !21
  %222 = getelementptr inbounds nuw %struct.HTTPContext, ptr %221, i32 0, i32 9
  store i64 %220, ptr %222, align 8, !tbaa !39
  %223 = load i32, ptr %15, align 4, !tbaa !34
  %224 = sext i32 %223 to i64
  store i64 %224, ptr %5, align 8
  store i32 1, ptr %17, align 4
  br label %229

225:                                              ; preds = %175
  call void @av_dict_free(ptr noundef %16)
  %226 = load ptr, ptr %11, align 8, !tbaa !4
  %227 = call i32 @ffurl_close(ptr noundef %226)
  %228 = load i64, ptr %7, align 8, !tbaa !47
  store i64 %228, ptr %5, align 8
  store i32 1, ptr %17, align 4
  br label %229

229:                                              ; preds = %225, %197, %172, %145, %109, %95, %89, %65, %53, %31
  call void @llvm.lifetime.end.p0(i64 8, ptr %16) #11
  call void @llvm.lifetime.end.p0(i64 4, ptr %15) #11
  call void @llvm.lifetime.end.p0(i64 4, ptr %14) #11
  call void @llvm.lifetime.end.p0(i64 8192, ptr %13) #11
  call void @llvm.lifetime.end.p0(i64 8, ptr %12) #11
  call void @llvm.lifetime.end.p0(i64 8, ptr %11) #11
  call void @llvm.lifetime.end.p0(i64 8, ptr %10) #11
  %230 = load i64, ptr %5, align 8
  ret i64 %230
}