; Function Attrs: nounwind uwtable
define internal fastcc i64 @http_seek_internal(ptr noundef %0, i64 noundef %1, i32 noundef %2, i32 noundef range(i32 0, 2) %3) unnamed_addr #2 {
  %5 = alloca [8192 x i8], align 16
  %6 = alloca ptr, align 8
  %7 = getelementptr inbounds nuw i8, ptr %0, i64 16
  %8 = load ptr, ptr %7, align 8, !tbaa !4
  %9 = getelementptr inbounds nuw i8, ptr %8, i64 8
  %10 = load ptr, ptr %9, align 8, !tbaa !37
  %11 = getelementptr inbounds nuw i8, ptr %8, i64 8248
  %12 = load i64, ptr %11, align 8, !tbaa !32
  call void @llvm.lifetime.start.p0(i64 8192, ptr nonnull %5)
  call void @llvm.lifetime.start.p0(i64 8, ptr nonnull %6) #15
  store ptr null, ptr %6, align 8, !tbaa !15
  %13 = icmp eq i32 %2, 65536
  br i1 %13, label %14, label %17

14:                                               ; preds = %4
  %15 = getelementptr inbounds nuw i8, ptr %8, i64 8264
  %16 = load i64, ptr %15, align 8, !tbaa !76
  br label %.thread88

17:                                               ; preds = %4
  %.not = icmp eq i32 %3, 0
  br i1 %.not, label %18, label %28

18:                                               ; preds = %17
  %19 = icmp eq i32 %2, 1
  %20 = icmp eq i64 %1, 0
  %or.cond = and i1 %20, %19
  br i1 %or.cond, label %.thread88, label %21

21:                                               ; preds = %18
  %22 = icmp eq i32 %2, 0
  br i1 %22, label %23, label %28

23:                                               ; preds = %21
  %24 = icmp eq i64 %1, %12
  br i1 %24, label %.thread88, label %.thread85

.thread85:                                        ; preds = %23
  %25 = getelementptr inbounds nuw i8, ptr %8, i64 8264
  %26 = load i64, ptr %25, align 8, !tbaa !76
  %27 = icmp eq i64 %26, -1
  br label %41

28:                                               ; preds = %21, %17
  %29 = getelementptr inbounds nuw i8, ptr %8, i64 8264
  %30 = load i64, ptr %29, align 8, !tbaa !76
  %31 = icmp eq i64 %30, -1
  %32 = icmp eq i32 %2, 2
  %or.cond4 = and i1 %32, %31
  br i1 %or.cond4, label %.thread88, label %33

33:                                               ; preds = %28
  %34 = icmp eq i32 %2, 1
  br i1 %34, label %35, label %37

35:                                               ; preds = %33
  %36 = add i64 %12, %1
  br label %41

37:                                               ; preds = %33
  br i1 %32, label %38, label %40

38:                                               ; preds = %37
  %39 = add i64 %30, %1
  br label %41

40:                                               ; preds = %37
  %.not74 = icmp eq i32 %2, 0
  br i1 %.not74, label %41, label %.thread88

41:                                               ; preds = %.thread85, %38, %40, %35
  %42 = phi i64 [ %30, %35 ], [ %30, %38 ], [ %30, %40 ], [ %26, %.thread85 ]
  %43 = phi i1 [ %31, %35 ], [ %31, %38 ], [ %31, %40 ], [ %27, %.thread85 ]
  %.067 = phi i64 [ %36, %35 ], [ %39, %38 ], [ %1, %40 ], [ %1, %.thread85 ]
  %44 = icmp slt i64 %.067, 0
  br i1 %44, label %.thread88, label %45

45:                                               ; preds = %41
  store i64 %.067, ptr %11, align 8, !tbaa !32
  %.not75 = icmp eq i64 %.067, 0
  br i1 %.not75, label %49, label %46

46:                                               ; preds = %45
  %47 = getelementptr inbounds nuw i8, ptr %0, i64 40
  %48 = load i32, ptr %47, align 8, !tbaa !91
  %.not76 = icmp eq i32 %48, 0
  br i1 %.not76, label %49, label %.thread88

49:                                               ; preds = %46, %45
  %50 = getelementptr inbounds nuw i8, ptr %8, i64 8256
  %51 = load i64, ptr %50, align 8, !tbaa !58
  %.not77 = icmp eq i64 %51, 0
  %brmerge.not92 = select i1 %.not77, i1 %43, i1 false
  %.mux = select i1 %.not77, i64 %42, i64 %51
  %.not80 = icmp ult i64 %.067, %.mux
  %or.cond91 = select i1 %brmerge.not92, i1 true, i1 %.not80
  br i1 %or.cond91, label %52, label %.thread88

52:                                               ; preds = %49
  %53 = getelementptr inbounds nuw i8, ptr %8, i64 8272
  %54 = load ptr, ptr %53, align 8, !tbaa !34
  %55 = getelementptr inbounds nuw i8, ptr %8, i64 8280
  %56 = load ptr, ptr %55, align 8, !tbaa !20
  %57 = tail call i32 @strcmp(ptr noundef nonnull dereferenceable(1) %54, ptr noundef nonnull dereferenceable(1) %56) #16
  %.not81 = icmp eq i32 %57, 0
  br i1 %.not81, label %62, label %58

58:                                               ; preds = %52
  %59 = tail call noalias ptr @av_strdup(ptr noundef nonnull %54) #15
  %.not82.not = icmp eq ptr %59, null
  br i1 %.not82.not, label %.thread88, label %60

60:                                               ; preds = %58
  %61 = load ptr, ptr %55, align 8, !tbaa !20
  tail call void @av_free(ptr noundef %61) #15
  store ptr %59, ptr %55, align 8, !tbaa !20
  br label %62

62:                                               ; preds = %60, %52
  %63 = getelementptr inbounds nuw i8, ptr %8, i64 8216
  %64 = load ptr, ptr %63, align 8, !tbaa !74
  %65 = getelementptr inbounds nuw i8, ptr %8, i64 8208
  %66 = load ptr, ptr %65, align 8, !tbaa !73
  %67 = ptrtoint ptr %64 to i64
  %68 = ptrtoint ptr %66 to i64
  %69 = sub i64 %67, %68
  %sext = shl i64 %69, 32
  %70 = ashr exact i64 %sext, 32
  call void @llvm.memcpy.p0.p0.i64(ptr nonnull align 16 %5, ptr align 1 %66, i64 %70, i1 false)
  store ptr null, ptr %9, align 8, !tbaa !37
  %71 = call fastcc i32 @http_open_cnx(ptr noundef nonnull %0, ptr noundef nonnull %6)
  %72 = icmp slt i32 %71, 0
  call void @av_dict_free(ptr noundef nonnull %6) #15
  br i1 %72, label %73, label %77

73:                                               ; preds = %62
  %74 = getelementptr inbounds nuw i8, ptr %8, i64 16
  call void @llvm.memcpy.p0.p0.i64(ptr nonnull align 8 %74, ptr nonnull align 16 %5, i64 %70, i1 false)
  store ptr %74, ptr %65, align 8, !tbaa !73
  %75 = getelementptr inbounds i8, ptr %74, i64 %70
  store ptr %75, ptr %63, align 8, !tbaa !74
  store ptr %10, ptr %9, align 8, !tbaa !37
  store i64 %12, ptr %11, align 8, !tbaa !32
  %76 = sext i32 %71 to i64
  br label %.thread88

77:                                               ; preds = %62
  %78 = call i32 @ffurl_close(ptr noundef %10) #15
  br label %.thread88

.thread88:                                        ; preds = %49, %58, %23, %18, %46, %41, %40, %28, %77, %73, %14
  %.0 = phi i64 [ %16, %14 ], [ %76, %73 ], [ %.067, %77 ], [ -38, %28 ], [ -22, %40 ], [ -22, %41 ], [ -38, %46 ], [ %12, %18 ], [ %1, %23 ], [ -12, %58 ], [ %.067, %49 ]
  call void @llvm.lifetime.end.p0(i64 8, ptr nonnull %6) #15
  call void @llvm.lifetime.end.p0(i64 8192, ptr nonnull %5)
  ret i64 %.0
}